(iSimulator.ysPhysConfig
ModelConfig
p1
(dp2
S'defaultContactBounce'
p3
F0.10000000000000001
sS'defaultJointHiStop'
p4
Finf
sS'defaultBoneRatio'
p5
F0.90000000000000002
sS'defaultKp'
p6
I100
sS'defaultContactMode'
p7
I4
sS'defaultContactSoftCFM'
p8
F0
sS'defaultContactMu'
p9
Finf
sS'defaultContactSoftERP'
p10
F0
sS'nodes'
p11
(dp12
S'Spine1'
p13
(iSimulator.ysPhysConfig
Node
p14
(dp15
S'jointAxes'
p16
(lp17
sS'jointLoStop'
p18
F-inf
sS'name'
p19
g13
sS'jointHiStop'
p20
Finf
sS'density'
p21
F1000
sS'contactSoftERP'
p22
F0
sS'Kd'
p23
I5
sS'contactBounce'
p24
F0.10000000000000001
sS'contactMu'
p25
Finf
sS'localT'
p26
NsS'width'
p27
NsS'length'
p28
F0.20000000000000001
sS'Kp'
p29
I100
sS'geom'
p30
S'MyBox'
p31
sS'contactMode'
p32
I4
sS'offset'
p33
(I0
I0
F0.10000000000000001
tp34
sS'mass'
p35
F3
sS'contactSoftCFM'
p36
F0
sS'boneRatio'
p37
F0.90000000000000002
sS'localR'
p38
NsbsS'RightHand_Effector'
p39
(iSimulator.ysPhysConfig
Node
p40
(dp41
g16
g17
sg18
F-inf
sg19
g39
sg20
Finf
sg21
F1000
sg22
F0
sg23
I5
sg24
F0.10000000000000001
sg25
Finf
sg26
Nsg27
Nsg28
Nsg29
I100
sg30
g31
sg32
I4
sg33
(I0
I0
I0
tp42
sg35
F0
sg36
F0
sg37
F0.90000000000000002
sg38
NsbsS'LeftHand'
p43
(iSimulator.ysPhysConfig
Node
p44
(dp45
g16
g17
sg18
F-inf
sg19
g43
sg20
Finf
sg21
F1000
sg22
F0
sg23
I5
sg24
F0.10000000000000001
sg25
Finf
sg26
Nsg27
Nsg28
Nsg29
I100
sg30
g31
sg32
I4
sg33
g42
sg35
F0
sg36
F0
sg37
F0.90000000000000002
sg38
NsbsS'Head'
p46
(iSimulator.ysPhysConfig
Node
p47
(dp48
g16
g17
sg18
F-inf
sg19
g46
sg20
Finf
sg21
F1000
sg22
F0
sg23
I5
sg24
F0.10000000000000001
sg25
Finf
sg26
Nsg27
Nsg28
Nsg29
I100
sg30
g31
sg32
I4
sg33
g42
sg35
F0
sg36
F0
sg37
F0.90000000000000002
sg38
NsbsS'RightHand'
p49
(iSimulator.ysPhysConfig
Node
p50
(dp51
g16
g17
sg18
F-inf
sg19
g49
sg20
Finf
sg21
F1000
sg22
F0
sg23
I5
sg24
F0.10000000000000001
sg25
Finf
sg26
Nsg27
Nsg28
Nsg29
I100
sg30
g31
sg32
I4
sg33
g42
sg35
F0
sg36
F0
sg37
F0.90000000000000002
sg38
NsbsS'Head_Effector'
p52
(iSimulator.ysPhysConfig
Node
p53
(dp54
g16
g17
sg18
F-inf
sg19
g52
sg20
Finf
sg21
F1000
sg22
F0
sg23
I5
sg24
F0.10000000000000001
sg25
Finf
sg26
Nsg27
Nsg28
Nsg29
I100
sg30
g31
sg32
I4
sg33
g42
sg35
F0
sg36
F0
sg37
F0.90000000000000002
sg38
NsbsS'LeftArm'
p55
(iSimulator.ysPhysConfig
Node
p56
(dp57
g16
g17
sg18
F-inf
sg19
g55
sg20
Finf
sg21
F1000
sg22
F0
sg23
I5
sg24
F0.10000000000000001
sg25
Finf
sg26
Nsg27
Nsg28
Nsg29
I100
sg30
g31
sg32
I4
sg33
g42
sg35
F2
sg36
F0
sg37
F0.90000000000000002
sg38
NsbsS'LeftToes'
p58
(iSimulator.ysPhysConfig
Node
p59
(dp60
g16
g17
sg18
F-inf
sg19
g58
sg20
Finf
sg21
F1000
sg22
F0
sg23
I5
sg24
F0.10000000000000001
sg25
Finf
sg26
Nsg27
Nsg28
Nsg29
I100
sg30
g31
sg32
I4
sg33
g42
sg35
F0
sg36
F0
sg37
F0.90000000000000002
sg38
NsbsS'LeftLeg'
p61
(iSimulator.ysPhysConfig
Node
p62
(dp63
g16
g17
sg18
F-inf
sg19
g61
sg20
Finf
sg21
F1000
sg22
F0
sg23
I5
sg24
F0.10000000000000001
sg25
Finf
sg26
Nsg27
Nsg28
Nsg29
I100
sg30
g31
sg32
I4
sg33
g42
sg35
F5
sg36
F0
sg37
F0.90000000000000002
sg38
NsbsS'RightToes_Effector'
p64
(iSimulator.ysPhysConfig
Node
p65
(dp66
g16
g17
sg18
F-inf
sg19
g64
sg20
Finf
sg21
F1000
sg22
F0
sg23
I5
sg24
F0.10000000000000001
sg25
Finf
sg26
Nsg27
Nsg28
Nsg29
I100
sg30
g31
sg32
I4
sg33
g42
sg35
F0
sg36
F0
sg37
F0.90000000000000002
sg38
NsbsS'RightForeArm'
p67
(iSimulator.ysPhysConfig
Node
p68
(dp69
g16
g17
sg18
F-inf
sg19
g67
sg20
Finf
sg21
F1000
sg22
F0
sg23
I5
sg24
F0.10000000000000001
sg25
Finf
sg26
Nsg27
Nsg28
Nsg29
I100
sg30
g31
sg32
I4
sg33
g42
sg35
F1
sg36
F0
sg37
F0.90000000000000002
sg38
NsbsS'Spine'
p70
(iSimulator.ysPhysConfig
Node
p71
(dp72
g16
g17
sg18
F-inf
sg19
g70
sg20
Finf
sg21
F1000
sg22
F0
sg23
I5
sg24
F0.10000000000000001
sg25
Finf
sg26
Nsg27
F0.22
sg28
Nsg29
I100
sg30
g31
sg32
I4
sg33
g42
sg35
F8
sg36
F0
sg37
F0.90000000000000002
sg38
NsbsS'LeftUpLeg'
p73
(iSimulator.ysPhysConfig
Node
p74
(dp75
g16
g17
sg18
F-inf
sg19
g73
sg20
Finf
sg21
F1000
sg22
F0
sg23
I5
sg24
F0.10000000000000001
sg25
Finf
sg26
Nsg27
Nsg28
Nsg29
I100
sg30
g31
sg32
I4
sg33
g42
sg35
F5
sg36
F0
sg37
F0.90000000000000002
sg38
NsbsS'LeftFoot'
p76
(iSimulator.ysPhysConfig
Node
p77
(dp78
g16
g17
sg18
F-inf
sg19
g76
sg20
Finf
sg21
F1000
sg22
F0
sg23
I5
sg24
F0.10000000000000001
sg25
Finf
sg26
Nsg27
F0.10000000000000001
sg28
F0.25
sg29
I100
sg30
S'MyFoot1'
p79
sg32
I4
sg33
g42
sg35
F2
sg36
F0
sg37
F0.90000000000000002
sg38
NsbsS'LeftToes_Effector'
p80
(iSimulator.ysPhysConfig
Node
p81
(dp82
g16
g17
sg18
F-inf
sg19
g80
sg20
Finf
sg21
F1000
sg22
F0
sg23
I5
sg24
F0.10000000000000001
sg25
Finf
sg26
Nsg27
Nsg28
Nsg29
I100
sg30
g31
sg32
I4
sg33
g42
sg35
F0
sg36
F0
sg37
F0.90000000000000002
sg38
NsbsS'LeftForeArm'
p83
(iSimulator.ysPhysConfig
Node
p84
(dp85
g16
g17
sg18
F-inf
sg19
g83
sg20
Finf
sg21
F1000
sg22
F0
sg23
I5
sg24
F0.10000000000000001
sg25
Finf
sg26
Nsg27
Nsg28
Nsg29
I100
sg30
g31
sg32
I4
sg33
g42
sg35
F1
sg36
F0
sg37
F0.90000000000000002
sg38
NsbsS'Hips'
p86
(iSimulator.ysPhysConfig
Node
p87
(dp88
g16
g17
sg18
F-inf
sg19
g86
sg20
Finf
sg21
F1000
sg22
F0
sg23
I5
sg24
F0.10000000000000001
sg25
Finf
sg26
Nsg27
F0.25
sg28
F0.20000000000000001
sg29
I100
sg30
g31
sg32
I4
sg33
g42
sg35
F6
sg36
F0
sg37
F0.90000000000000002
sg38
NsbsS'RightFoot'
p89
(iSimulator.ysPhysConfig
Node
p90
(dp91
g16
g17
sg18
F-inf
sg19
g89
sg20
Finf
sg21
F1000
sg22
F0
sg23
I5
sg24
F0.10000000000000001
sg25
Finf
sg26
Nsg27
F0.10000000000000001
sg28
F0.25
sg29
I100
sg30
g79
sg32
I4
sg33
g42
sg35
F2
sg36
F0
sg37
F0.90000000000000002
sg38
NsbsS'RightArm'
p92
(iSimulator.ysPhysConfig
Node
p93
(dp94
g16
g17
sg18
F-inf
sg19
g92
sg20
Finf
sg21
F1000
sg22
F0
sg23
I5
sg24
F0.10000000000000001
sg25
Finf
sg26
Nsg27
Nsg28
Nsg29
I100
sg30
g31
sg32
I4
sg33
g42
sg35
F2
sg36
F0
sg37
F0.90000000000000002
sg38
NsbsS'RightUpLeg'
p95
(iSimulator.ysPhysConfig
Node
p96
(dp97
g16
g17
sg18
F-inf
sg19
g95
sg20
Finf
sg21
F1000
sg22
F0
sg23
I5
sg24
F0.10000000000000001
sg25
Finf
sg26
Nsg27
Nsg28
Nsg29
I100
sg30
g31
sg32
I4
sg33
g42
sg35
F5
sg36
F0
sg37
F0.90000000000000002
sg38
NsbsS'RightToes'
p98
(iSimulator.ysPhysConfig
Node
p99
(dp100
g16
g17
sg18
F-inf
sg19
g98
sg20
Finf
sg21
F1000
sg22
F0
sg23
I5
sg24
F0.10000000000000001
sg25
Finf
sg26
Nsg27
Nsg28
Nsg29
I100
sg30
g31
sg32
I4
sg33
g42
sg35
F0
sg36
F0
sg37
F0.90000000000000002
sg38
NsbsS'LeftShoulder1'
p101
(iSimulator.ysPhysConfig
Node
p102
(dp103
g16
g17
sg18
F-inf
sg19
g101
sg20
Finf
sg21
F1000
sg22
F0
sg23
I5
sg24
F0.10000000000000001
sg25
Finf
sg26
Nsg27
Nsg28
Nsg29
I100
sg30
g31
sg32
I4
sg33
g42
sg35
F0
sg36
F0
sg37
F0.90000000000000002
sg38
NsbsS'RightLeg'
p104
(iSimulator.ysPhysConfig
Node
p105
(dp106
g16
g17
sg18
F-inf
sg19
g104
sg20
Finf
sg21
F1000
sg22
F0
sg23
I5
sg24
F0.10000000000000001
sg25
Finf
sg26
Nsg27
Nsg28
Nsg29
I100
sg30
g31
sg32
I4
sg33
g42
sg35
F5
sg36
F0
sg37
F0.90000000000000002
sg38
NsbsS'LeftHand_Effector'
p107
(iSimulator.ysPhysConfig
Node
p108
(dp109
g16
g17
sg18
F-inf
sg19
g107
sg20
Finf
sg21
F1000
sg22
F0
sg23
I5
sg24
F0.10000000000000001
sg25
Finf
sg26
Nsg27
Nsg28
Nsg29
I100
sg30
g31
sg32
I4
sg33
g42
sg35
F0
sg36
F0
sg37
F0.90000000000000002
sg38
NsbsS'RightShoulder'
p110
(iSimulator.ysPhysConfig
Node
p111
(dp112
g16
g17
sg18
F-inf
sg19
g110
sg20
Finf
sg21
F1000
sg22
F0
sg23
I5
sg24
F0.10000000000000001
sg25
Finf
sg26
Nsg27
Nsg28
Nsg29
I100
sg30
g31
sg32
I4
sg33
g42
sg35
F0
sg36
F0
sg37
F0.90000000000000002
sg38
NsbssS'defaultDensity'
p113
F1000
sS'defaultJointLoStop'
p114
F-inf
sS'defaultJointAxes'
p115
g17
sS'defaultKd'
p116
I5
sb.